ccopy_reg
_reconstructor
p0
(csklearn.feature_extraction.text
CountVectorizer
p1
c__builtin__
object
p2
Ntp3
Rp4
(dp5
S'decode_error'
p6
Vstrict
p7
sS'lowercase'
p8
I01
sS'stop_words'
p9
NsS'tokenizer'
p10
NsS'encoding'
p11
Vutf-8
p12
sS'token_pattern'
p13
V(?u)\u005cb\u005cw\u005cw+\u005cb
p14
sS'max_df'
p15
F1.0
sS'fixed_vocabulary'
p16
I00
sS'analyzer'
p17
Vword
p18
sS'vocabulary_'
p19
(dp20
Vurinary
p21
cnumpy.core.multiarray
scalar
p22
(cnumpy
dtype
p23
(S'i4'
p24
I0
I1
tp25
Rp26
(I3
S'<'
p27
NNNI-1
I-1
I0
tp28
bS'\xcb\x01\x00\x00'
p29
tp30
Rp31
sVinfluenza
p32
g22
(g26
S'\xe1\x00\x00\x00'
p33
tp34
Rp35
sVhypocalcemia
p36
g22
(g26
S'\xd1\x00\x00\x00'
p37
tp38
Rp39
sVscratch
p40
g22
(g26
S'\x7f\x01\x00\x00'
p41
tp42
Rp43
sVallergy
p44
g22
(g26
S'\t\x00\x00\x00'
p45
tp46
Rp47
sVblisters
p48
g22
(g26
S"'\x00\x00\x00"
p49
tp50
Rp51
sVovarian
p52
g22
(g26
S'>\x01\x00\x00'
p53
tp54
Rp55
sVfecal
p56
g22
(g26
S'\x99\x00\x00\x00'
p57
tp58
Rp59
sVemotional
p60
g22
(g26
S'\x89\x00\x00\x00'
p61
tp62
Rp63
sVhypothyroidism
p64
g22
(g26
S'\xd5\x00\x00\x00'
p65
tp66
Rp67
sVgallbladder
p68
g22
(g26
S'\xac\x00\x00\x00'
p69
tp70
Rp71
sVpkd
p72
g22
(g26
S'S\x01\x00\x00'
p73
tp74
Rp75
sVskin
p76
g22
(g26
S'\x8c\x01\x00\x00'
p77
tp78
Rp79
sVappetite
p80
g22
(g26
S'\x15\x00\x00\x00'
p81
tp82
Rp83
sVstrep
p84
g22
(g26
S'\x9f\x01\x00\x00'
p85
tp86
Rp87
sVretention
p88
g22
(g26
S's\x01\x00\x00'
p89
tp90
Rp91
sVsuicide
p92
g22
(g26
S'\xa1\x01\x00\x00'
p93
tp94
Rp95
sVpenile
p96
g22
(g26
S'J\x01\x00\x00'
p97
tp98
Rp99
sVtremors
p100
g22
(g26
S'\xbe\x01\x00\x00'
p101
tp102
Rp103
sVridges
p104
g22
(g26
S'v\x01\x00\x00'
p105
tp106
Rp107
sVparanoia
p108
g22
(g26
S'G\x01\x00\x00'
p109
tp110
Rp111
sVtexture
p112
g22
(g26
S'\xae\x01\x00\x00'
p113
tp114
Rp115
sVdermatitis
p116
g22
(g26
S'j\x00\x00\x00'
p117
tp118
Rp119
sVto
p120
g22
(g26
S'\xb6\x01\x00\x00'
p121
tp122
Rp123
sVhyperthermia
p124
g22
(g26
S'\xce\x00\x00\x00'
p125
tp126
Rp127
sVappendicitis
p128
g22
(g26
S'\x14\x00\x00\x00'
p129
tp130
Rp131
sVev d68
p132
g22
(g26
S'\x90\x00\x00\x00'
p133
tp134
Rp135
sVunder
p136
g22
(g26
S'\xc5\x01\x00\x00'
p137
tp138
Rp139
sVnodes
p140
g22
(g26
S'1\x01\x00\x00'
p141
tp142
Rp143
sVhip
p144
g22
(g26
S'\xc8\x00\x00\x00'
p145
tp146
Rp147
sVlack
p148
g22
(g26
S'\xf6\x00\x00\x00'
p149
tp150
Rp151
sVhiv
p152
g22
(g26
S'\xc9\x00\x00\x00'
p153
tp154
Rp155
sVyeast
p156
g22
(g26
S'\xe2\x01\x00\x00'
p157
tp158
Rp159
sVbeau
p160
g22
(g26
S'\x1f\x00\x00\x00'
p161
tp162
Rp163
sVjoint
p164
g22
(g26
S'\xef\x00\x00\x00'
p165
tp166
Rp167
sValcohol
p168
g22
(g26
S'\x08\x00\x00\x00'
p169
tp170
Rp171
sVbreast
p172
g22
(g26
S'/\x00\x00\x00'
p173
tp174
Rp175
sVaffect
p176
g22
(g26
S'\x06\x00\x00\x00'
p177
tp178
Rp179
sVsinus
p180
g22
(g26
S'\x8a\x01\x00\x00'
p181
tp182
Rp183
sVanemia
p184
g22
(g26
S'\r\x00\x00\x00'
p185
tp186
Rp187
sVptosis
p188
g22
(g26
S'g\x01\x00\x00'
p189
tp190
Rp191
sVclot
p192
g22
(g26
S'H\x00\x00\x00'
p193
tp194
Rp195
sVrespiratory
p196
g22
(g26
S'q\x01\x00\x00'
p197
tp198
Rp199
sVdyspepsia
p200
g22
(g26
S'\x80\x00\x00\x00'
p201
tp202
Rp203
sVstiff
p204
g22
(g26
S'\x98\x01\x00\x00'
p205
tp206
Rp207
sVcloudy
p208
g22
(g26
S'I\x00\x00\x00'
p209
tp210
Rp211
sVlabile
p212
g22
(g26
S'\xf5\x00\x00\x00'
p213
tp214
Rp215
sVurinating
p216
g22
(g26
S'\xcc\x01\x00\x00'
p217
tp218
Rp219
sVwithdrawal
p220
g22
(g26
S'\xde\x01\x00\x00'
p221
tp222
Rp223
sVsmall
p224
g22
(g26
S'\x8d\x01\x00\x00'
p225
tp226
Rp227
sVanal
p228
g22
(g26
S'\x0b\x00\x00\x00'
p229
tp230
Rp231
sVvision
p232
g22
(g26
S'\xd4\x01\x00\x00'
p233
tp234
Rp235
sVenterovirus
p236
g22
(g26
S'\x8d\x00\x00\x00'
p237
tp238
Rp239
sVupper
p240
g22
(g26
S'\xc8\x01\x00\x00'
p241
tp242
Rp243
sVulcer
p244
g22
(g26
S'\xc3\x01\x00\x00'
p245
tp246
Rp247
sVpms
p248
g22
(g26
S'U\x01\x00\x00'
p249
tp250
Rp251
sVbleeding
p252
g22
(g26
S'&\x00\x00\x00'
p253
tp254
Rp255
sVreflux
p256
g22
(g26
S'o\x01\x00\x00'
p257
tp258
Rp259
sVperipheral
p260
g22
(g26
S'N\x01\x00\x00'
p261
tp262
Rp263
sVsensation
p264
g22
(g26
S'\x84\x01\x00\x00'
p265
tp266
Rp267
sVblurred
p268
g22
(g26
S',\x00\x00\x00'
p269
tp270
Rp271
sVnail
p272
g22
(g26
S'%\x01\x00\x00'
p273
tp274
Rp275
sVschizophrenia
p276
g22
(g26
S'}\x01\x00\x00'
p277
tp278
Rp279
sVcatatonic
p280
g22
(g26
S'=\x00\x00\x00'
p281
tp282
Rp283
sVhemolysis
p284
g22
(g26
S'\xc1\x00\x00\x00'
p285
tp286
Rp287
sVcatatonia
p288
g22
(g26
S'<\x00\x00\x00'
p289
tp290
Rp291
sVeating
p292
g22
(g26
S'\x86\x00\x00\x00'
p293
tp294
Rp295
sVacid
p296
g22
(g26
S'\x03\x00\x00\x00'
p297
tp298
Rp299
sVexpressions
p300
g22
(g26
S'\x92\x00\x00\x00'
p301
tp302
Rp303
sVdepression
p304
g22
(g26
S'i\x00\x00\x00'
p305
tp306
Rp307
sVdistractibility
p308
g22
(g26
S'v\x00\x00\x00'
p309
tp310
Rp311
sVblue
p312
g22
(g26
S'*\x00\x00\x00'
p313
tp314
Rp315
sVsnoring
p316
g22
(g26
S'\x8f\x01\x00\x00'
p317
tp318
Rp319
sVself neglect
p320
g22
(g26
S'\x82\x01\x00\x00'
p321
tp322
Rp323
sVstool
p324
g22
(g26
S'\x9c\x01\x00\x00'
p325
tp326
Rp327
sVfingers
p328
g22
(g26
S'\xa1\x00\x00\x00'
p329
tp330
Rp331
sVemotions
p332
g22
(g26
S'\x8a\x00\x00\x00'
p333
tp334
Rp335
sVbipolar
p336
g22
(g26
S'#\x00\x00\x00'
p337
tp338
Rp339
sVfinger
p340
g22
(g26
S'\x9f\x00\x00\x00'
p341
tp342
Rp343
sVinvaginated
p344
g22
(g26
S'\xe7\x00\x00\x00'
p345
tp346
Rp347
sVendocarditis
p348
g22
(g26
S'\x8b\x00\x00\x00'
p349
tp350
Rp351
sVebola
p352
g22
(g26
S'\x87\x00\x00\x00'
p353
tp354
Rp355
sVjaundice
p356
g22
(g26
S'\xed\x00\x00\x00'
p357
tp358
Rp359
sVbird
p360
g22
(g26
S'$\x00\x00\x00'
p361
tp362
Rp363
sVhairy
p364
g22
(g26
S'\xb7\x00\x00\x00'
p365
tp366
Rp367
sVtoes
p368
g22
(g26
S'\xb8\x01\x00\x00'
p369
tp370
Rp371
sVdistention
p372
g22
(g26
S'u\x00\x00\x00'
p373
tp374
Rp375
sVvertical
p376
g22
(g26
S'\xd1\x01\x00\x00'
p377
tp378
Rp379
sVleg
p380
g22
(g26
S'\xf9\x00\x00\x00'
p381
tp382
Rp383
sVblunted
p384
g22
(g26
S'+\x00\x00\x00'
p385
tp386
Rp387
sVattention
p388
g22
(g26
S'\x1b\x00\x00\x00'
p389
tp390
Rp391
sVulcerative
p392
g22
(g26
S'\xc4\x01\x00\x00'
p393
tp394
Rp395
sVoveractive
p396
g22
(g26
S'?\x01\x00\x00'
p397
tp398
Rp399
sVvomiting
p400
g22
(g26
S'\xd6\x01\x00\x00'
p401
tp402
Rp403
sVneonatal
p404
g22
(g26
S',\x01\x00\x00'
p405
tp406
Rp407
sVseparation
p408
g22
(g26
S'\x85\x01\x00\x00'
p409
tp410
Rp411
sVcongestion
p412
g22
(g26
S'R\x00\x00\x00'
p413
tp414
Rp415
sVmiscarriage
p416
g22
(g26
S'\x14\x01\x00\x00'
p417
tp418
Rp419
sVtremor
p420
g22
(g26
S'\xbd\x01\x00\x00'
p421
tp422
Rp423
sVshortness
p424
g22
(g26
S'\x88\x01\x00\x00'
p425
tp426
Rp427
sVcervical
p428
g22
(g26
S'?\x00\x00\x00'
p429
tp430
Rp431
sVintolerance
p432
g22
(g26
S'\xe6\x00\x00\x00'
p433
tp434
Rp435
sVcontraction
p436
g22
(g26
S'U\x00\x00\x00'
p437
tp438
Rp439
sVdry
p440
g22
(g26
S'}\x00\x00\x00'
p441
tp442
Rp443
sVdysarthria
p444
g22
(g26
S'\x7f\x00\x00\x00'
p445
tp446
Rp447
sVsputum
p448
g22
(g26
S'\x96\x01\x00\x00'
p449
tp450
Rp451
sVnumbness
p452
g22
(g26
S'5\x01\x00\x00'
p453
tp454
Rp455
sVmono
p456
g22
(g26
S'\x16\x01\x00\x00'
p457
tp458
Rp459
sVhypoglycemia
p460
g22
(g26
S'\xd2\x00\x00\x00'
p461
tp462
Rp463
sVnile
p464
g22
(g26
S'.\x01\x00\x00'
p465
tp466
Rp467
sVdetrusor
p468
g22
(g26
S'k\x00\x00\x00'
p469
tp470
Rp471
sVstiffness
p472
g22
(g26
S'\x99\x01\x00\x00'
p473
tp474
Rp475
sVjaw
p476
g22
(g26
S'\xee\x00\x00\x00'
p477
tp478
Rp479
sVdelirium
p480
g22
(g26
S'e\x00\x00\x00'
p481
tp482
Rp483
sVtiredness
p484
g22
(g26
S'\xb5\x01\x00\x00'
p485
tp486
Rp487
sVchanges
p488
g22
(g26
S'@\x00\x00\x00'
p489
tp490
Rp491
sVcystic
p492
g22
(g26
S']\x00\x00\x00'
p493
tp494
Rp495
sVdysphagia
p496
g22
(g26
S'\x81\x00\x00\x00'
p497
tp498
Rp499
sVdiverticulitis
p500
g22
(g26
S'w\x00\x00\x00'
p501
tp502
Rp503
sVcancer
p504
g22
(g26
S'8\x00\x00\x00'
p505
tp506
Rp507
sVcolor
p508
g22
(g26
S'O\x00\x00\x00'
p509
tp510
Rp511
sVears
p512
g22
(g26
S'\x84\x00\x00\x00'
p513
tp514
Rp515
sVimpulsivity
p516
g22
(g26
S'\xd8\x00\x00\x00'
p517
tp518
Rp519
sVperiod
p520
g22
(g26
S'M\x01\x00\x00'
p521
tp522
Rp523
sVbloody
p524
g22
(g26
S')\x00\x00\x00'
p525
tp526
Rp527
sVmeniere
p528
g22
(g26
S'\x0c\x01\x00\x00'
p529
tp530
Rp531
sVcolon
p532
g22
(g26
S'N\x00\x00\x00'
p533
tp534
Rp535
sVrash
p536
g22
(g26
S'k\x01\x00\x00'
p537
tp538
Rp539
sVmotor
p540
g22
(g26
S'\x1a\x01\x00\x00'
p541
tp542
Rp543
sVcarbon
p544
g22
(g26
S'9\x00\x00\x00'
p545
tp546
Rp547
sVpregnancy
p548
g22
(g26
S'_\x01\x00\x00'
p549
tp550
Rp551
sVasthma
p552
g22
(g26
S'\x18\x00\x00\x00'
p553
tp554
Rp555
sVsweating
p556
g22
(g26
S'\xa2\x01\x00\x00'
p557
tp558
Rp559
sVflashes
p560
g22
(g26
S'\xa3\x00\x00\x00'
p561
tp562
Rp563
sVswings
p564
g22
(g26
S'\xa5\x01\x00\x00'
p565
tp566
Rp567
sVfrom
p568
g22
(g26
S'\xa9\x00\x00\x00'
p569
tp570
Rp571
sVgerd
p572
g22
(g26
S'\xb1\x00\x00\x00'
p573
tp574
Rp575
sVfingernails
p576
g22
(g26
S'\xa0\x00\x00\x00'
p577
tp578
Rp579
sVwest
p580
g22
(g26
S'\xdb\x01\x00\x00'
p581
tp582
Rp583
sVbinge
p584
g22
(g26
S'"\x00\x00\x00'
p585
tp586
Rp587
sVlyme
p588
g22
(g26
S'\x06\x01\x00\x00'
p589
tp590
Rp591
sVbreath
p592
g22
(g26
S'0\x00\x00\x00'
p593
tp594
Rp595
sVtonsils
p596
g22
(g26
S'\xba\x01\x00\x00'
p597
tp598
Rp599
sVwheezing
p600
g22
(g26
S'\xdc\x01\x00\x00'
p601
tp602
Rp603
sVmemory
p604
g22
(g26
S'\x0b\x01\x00\x00'
p605
tp606
Rp607
sVfainting
p608
g22
(g26
S'\x97\x00\x00\x00'
p609
tp610
Rp611
sVwarmth
p612
g22
(g26
S'\xd7\x01\x00\x00'
p613
tp614
Rp615
sVimpotence
p616
g22
(g26
S'\xd7\x00\x00\x00'
p617
tp618
Rp619
sVmenstrual
p620
g22
(g26
S'\x0f\x01\x00\x00'
p621
tp622
Rp623
sVflat
p624
g22
(g26
S'\xa4\x00\x00\x00'
p625
tp626
Rp627
sVavian
p628
g22
(g26
S'\x1d\x00\x00\x00'
p629
tp630
Rp631
sVchlamydia
p632
g22
(g26
S'E\x00\x00\x00'
p633
tp634
Rp635
sVmydriasis
p636
g22
(g26
S'#\x01\x00\x00'
p637
tp638
Rp639
sVmeasles
p640
g22
(g26
S'\n\x01\x00\x00'
p641
tp642
Rp643
sVinattention
p644
g22
(g26
S'\xdb\x00\x00\x00'
p645
tp646
Rp647
sVgas
p648
g22
(g26
S'\xad\x00\x00\x00'
p649
tp650
Rp651
sVbladder
p652
g22
(g26
S'%\x00\x00\x00'
p653
tp654
Rp655
sVinfection
p656
g22
(g26
S'\xde\x00\x00\x00'
p657
tp658
Rp659
sVsore
p660
g22
(g26
S'\x90\x01\x00\x00'
p661
tp662
Rp663
sVcellulitis
p664
g22
(g26
S'>\x00\x00\x00'
p665
tp666
Rp667
sVliver
p668
g22
(g26
S'\x00\x01\x00\x00'
p669
tp670
Rp671
sVpenis
p672
g22
(g26
S'K\x01\x00\x00'
p673
tp674
Rp675
sVhernia
p676
g22
(g26
S'\xc4\x00\x00\x00'
p677
tp678
Rp679
sVwomen
p680
g22
(g26
S'\xdf\x01\x00\x00'
p681
tp682
Rp683
sVpostnasal
p684
g22
(g26
S']\x01\x00\x00'
p685
tp686
Rp687
sVspasms
p688
g22
(g26
S'\x92\x01\x00\x00'
p689
tp690
Rp691
sVtunnel
p692
g22
(g26
S'\xc0\x01\x00\x00'
p693
tp694
Rp695
sVflu
p696
g22
(g26
S'\xa5\x00\x00\x00'
p697
tp698
Rp699
sVcat
p700
g22
(g26
S';\x00\x00\x00'
p701
tp702
Rp703
sVms
p704
g22
(g26
S'\x1d\x01\x00\x00'
p705
tp706
Rp707
sVelbow
p708
g22
(g26
S'\x88\x00\x00\x00'
p709
tp710
Rp711
sVpressure
p712
g22
(g26
S'a\x01\x00\x00'
p713
tp714
Rp715
sVibs
p716
g22
(g26
S'\xd6\x00\x00\x00'
p717
tp718
Rp719
sVrestless
p720
g22
(g26
S'r\x01\x00\x00'
p721
tp722
Rp723
sVgroin
p724
g22
(g26
S'\xb4\x00\x00\x00'
p725
tp726
Rp727
sVheart
p728
g22
(g26
S'\xbe\x00\x00\x00'
p729
tp730
Rp731
sVringing
p732
g22
(g26
S'w\x01\x00\x00'
p733
tp734
Rp735
sVhyperactivity
p736
g22
(g26
S'\xcd\x00\x00\x00'
p737
tp738
Rp739
sVjoints
p740
g22
(g26
S'\xf0\x00\x00\x00'
p741
tp742
Rp743
sVphotophobia
p744
g22
(g26
S'P\x01\x00\x00'
p745
tp746
Rp747
sVhigh
p748
g22
(g26
S'\xc7\x00\x00\x00'
p749
tp750
Rp751
sVmiddle
p752
g22
(g26
S'\x12\x01\x00\x00'
p753
tp754
Rp755
sVstroke
p756
g22
(g26
S'\xa0\x01\x00\x00'
p757
tp758
Rp759
sVfluctuating
p760
g22
(g26
S'\xa6\x00\x00\x00'
p761
tp762
Rp763
sVpalpitations
p764
g22
(g26
S'C\x01\x00\x00'
p765
tp766
Rp767
sVlimping
p768
g22
(g26
S'\xfc\x00\x00\x00'
p769
tp770
Rp771
sVin
p772
g22
(g26
S'\xd9\x00\x00\x00'
p773
tp774
Rp775
sVmrsa
p776
g22
(g26
S'\x1c\x01\x00\x00'
p777
tp778
Rp779
sVtoothache
p780
g22
(g26
S'\xbb\x01\x00\x00'
p781
tp782
Rp783
sVprotein
p784
g22
(g26
S'c\x01\x00\x00'
p785
tp786
Rp787
sVredness
p788
g22
(g26
S'n\x01\x00\x00'
p789
tp790
Rp791
sVpink
p792
g22
(g26
S'Q\x01\x00\x00'
p793
tp794
Rp795
sVaches
p796
g22
(g26
S'\x02\x00\x00\x00'
p797
tp798
Rp799
sVlactase
p800
g22
(g26
S'\xf7\x00\x00\x00'
p801
tp802
Rp803
sVpolio
p804
g22
(g26
S'X\x01\x00\x00'
p805
tp806
Rp807
sVsyndrome
p808
g22
(g26
S'\xa7\x01\x00\x00'
p809
tp810
Rp811
sVmigraine
p812
g22
(g26
S'\x13\x01\x00\x00'
p813
tp814
Rp815
sVstone
p816
g22
(g26
S'\x9b\x01\x00\x00'
p817
tp818
Rp819
sVautism
p820
g22
(g26
S'\x1c\x00\x00\x00'
p821
tp822
Rp823
sVpositional
p824
g22
(g26
S'\\\x01\x00\x00'
p825
tp826
Rp827
sVbenign
p828
g22
(g26
S'!\x00\x00\x00'
p829
tp830
Rp831
sVhot
p832
g22
(g26
S'\xcb\x00\x00\x00'
p833
tp834
Rp835
sVstrange
p836
g22
(g26
S'\x9d\x01\x00\x00'
p837
tp838
Rp839
sVspeech
p840
g22
(g26
S'\x94\x01\x00\x00'
p841
tp842
Rp843
sVmumps
p844
g22
(g26
S'\x1f\x01\x00\x00'
p845
tp846
Rp847
sVpanic
p848
g22
(g26
S'E\x01\x00\x00'
p849
tp850
Rp851
sVfibrosis
p852
g22
(g26
S'\x9e\x00\x00\x00'
p853
tp854
Rp855
sVd68
p856
g22
(g26
S'_\x00\x00\x00'
p857
tp858
Rp859
sVwatery
p860
g22
(g26
S'\xd8\x01\x00\x00'
p861
tp862
Rp863
sVfever
p864
g22
(g26
S'\x9b\x00\x00\x00'
p865
tp866
Rp867
sVdelusions
p868
g22
(g26
S'f\x00\x00\x00'
p869
tp870
Rp871
sVitch
p872
g22
(g26
S'\xeb\x00\x00\x00'
p873
tp874
Rp875
sVmononucleosis
p876
g22
(g26
S'\x17\x01\x00\x00'
p877
tp878
Rp879
sVpeeling
p880
g22
(g26
S'H\x01\x00\x00'
p881
tp882
Rp883
sVarthritis
p884
g22
(g26
S'\x17\x00\x00\x00'
p885
tp886
Rp887
sVdeformity
p888
g22
(g26
S'c\x00\x00\x00'
p889
tp890
Rp891
sVleukemia
p892
g22
(g26
S'\xfa\x00\x00\x00'
p893
tp894
Rp895
sVlump
p896
g22
(g26
S'\x02\x01\x00\x00'
p897
tp898
Rp899
sVspasticity
p900
g22
(g26
S'\x93\x01\x00\x00'
p901
tp902
Rp903
sVfatigue
p904
g22
(g26
S'\x98\x00\x00\x00'
p905
tp906
Rp907
sVblood
p908
g22
(g26
S'(\x00\x00\x00'
p909
tp910
Rp911
sVoutbursts
p912
g22
(g26
S'<\x01\x00\x00'
p913
tp914
Rp915
sVconcentrating
p916
g22
(g26
S'P\x00\x00\x00'
p917
tp918
Rp919
sVdiscoloration
p920
g22
(g26
S'r\x00\x00\x00'
p921
tp922
Rp923
sVmonoxide
p924
g22
(g26
S'\x18\x01\x00\x00'
p925
tp926
Rp927
sVlupus
p928
g22
(g26
S'\x05\x01\x00\x00'
p929
tp930
Rp931
sVchills
p932
g22
(g26
S'D\x00\x00\x00'
p933
tp934
Rp935
sVneck
p936
g22
(g26
S')\x01\x00\x00'
p937
tp938
Rp939
sVcoccydynia
p940
g22
(g26
S'K\x00\x00\x00'
p941
tp942
Rp943
sVneuropathy
p944
g22
(g26
S'-\x01\x00\x00'
p945
tp946
Rp947
sVrubeola
p948
g22
(g26
S'y\x01\x00\x00'
p949
tp950
Rp951
sVhypopituitarism
p952
g22
(g26
S'\xd3\x00\x00\x00'
p953
tp954
Rp955
sVdiogenes
p956
g22
(g26
S'p\x00\x00\x00'
p957
tp958
Rp959
sVlines
p960
g22
(g26
S'\xfd\x00\x00\x00'
p961
tp962
Rp963
sVdrip
p964
g22
(g26
S'{\x00\x00\x00'
p965
tp966
Rp967
sVor
p968
g22
(g26
S';\x01\x00\x00'
p969
tp970
Rp971
sVcontact
p972
g22
(g26
S'T\x00\x00\x00'
p973
tp974
Rp975
sVswollen
p976
g22
(g26
S'\xa6\x01\x00\x00'
p977
tp978
Rp979
sVinability
p980
g22
(g26
S'\xda\x00\x00\x00'
p981
tp982
Rp983
sVdepigmentation
p984
g22
(g26
S'h\x00\x00\x00'
p985
tp986
Rp987
sVthe
p988
g22
(g26
S'\xaf\x01\x00\x00'
p989
tp990
Rp991
sVmuscle
p992
g22
(g26
S' \x01\x00\x00'
p993
tp994
Rp995
sVunsteady
p996
g22
(g26
S'\xc6\x01\x00\x00'
p997
tp998
Rp999
sVexcessive
p1000
g22
(g26
S'\x91\x00\x00\x00'
p1001
tp1002
Rp1003
sVgastritis
p1004
g22
(g26
S'\xae\x00\x00\x00'
p1005
tp1006
Rp1007
sVurine
p1008
g22
(g26
S'\xce\x01\x00\x00'
p1009
tp1010
Rp1011
sVarm
p1012
g22
(g26
S'\x16\x00\x00\x00'
p1013
tp1014
Rp1015
sVbrain
p1016
g22
(g26
S'.\x00\x00\x00'
p1017
tp1018
Rp1019
sVdehydration
p1020
g22
(g26
S'd\x00\x00\x00'
p1021
tp1022
Rp1023
sVafib
p1024
g22
(g26
S'\x07\x00\x00\x00'
p1025
tp1026
Rp1027
sVpolycystic
p1028
g22
(g26
S'Y\x01\x00\x00'
p1029
tp1030
Rp1031
sVirritable
p1032
g22
(g26
S'\xea\x00\x00\x00'
p1033
tp1034
Rp1035
sVhemolytic
p1036
g22
(g26
S'\xc2\x00\x00\x00'
p1037
tp1038
Rp1039
sVcold
p1040
g22
(g26
S'L\x00\x00\x00'
p1041
tp1042
Rp1043
sVbrittle
p1044
g22
(g26
S'1\x00\x00\x00'
p1045
tp1046
Rp1047
sVpsoriatic
p1048
g22
(g26
S'f\x01\x00\x00'
p1049
tp1050
Rp1051
sVsinusitis
p1052
g22
(g26
S'\x8b\x01\x00\x00'
p1053
tp1054
Rp1055
sVyawning
p1056
g22
(g26
S'\xe1\x01\x00\x00'
p1057
tp1058
Rp1059
sVatrial
p1060
g22
(g26
S'\x19\x00\x00\x00'
p1061
tp1062
Rp1063
sVinterstitial
p1064
g22
(g26
S'\xe4\x00\x00\x00'
p1065
tp1066
Rp1067
sVphlebitis
p1068
g22
(g26
S'O\x01\x00\x00'
p1069
tp1070
Rp1071
sVclubbing
p1072
g22
(g26
S'J\x00\x00\x00'
p1073
tp1074
Rp1075
sVnode
p1076
g22
(g26
S'0\x01\x00\x00'
p1077
tp1078
Rp1079
sVcramps
p1080
g22
(g26
S'Y\x00\x00\x00'
p1081
tp1082
Rp1083
sVmutism
p1084
g22
(g26
S'!\x01\x00\x00'
p1085
tp1086
Rp1087
sVeasy
p1088
g22
(g26
S'\x85\x00\x00\x00'
p1089
tp1090
Rp1091
sVeye
p1092
g22
(g26
S'\x93\x00\x00\x00'
p1093
tp1094
Rp1095
sVdecreased
p1096
g22
(g26
S'a\x00\x00\x00'
p1097
tp1098
Rp1099
sVurination
p1100
g22
(g26
S'\xcd\x01\x00\x00'
p1101
tp1102
Rp1103
sVnausea
p1104
g22
(g26
S'(\x01\x00\x00'
p1105
tp1106
Rp1107
sVpostpartum
p1108
g22
(g26
S'^\x01\x00\x00'
p1109
tp1110
Rp1111
sVnon
p1112
g22
(g26
S'2\x01\x00\x00'
p1113
tp1114
Rp1115
sVtics
p1116
g22
(g26
S'\xb3\x01\x00\x00'
p1117
tp1118
Rp1119
sVincreased
p1120
g22
(g26
S'\xdd\x00\x00\x00'
p1121
tp1122
Rp1123
sVweakness
p1124
g22
(g26
S'\xd9\x01\x00\x00'
p1125
tp1126
Rp1127
sVlibido
p1128
g22
(g26
S'\xfb\x00\x00\x00'
p1129
tp1130
Rp1131
sVinsomnia
p1132
g22
(g26
S'\xe2\x00\x00\x00'
p1133
tp1134
Rp1135
sVrunny
p1136
g22
(g26
S'z\x01\x00\x00'
p1137
tp1138
Rp1139
sVdark
p1140
g22
(g26
S'`\x00\x00\x00'
p1141
tp1142
Rp1143
sVonychorrhexis
p1144
g22
(g26
S':\x01\x00\x00'
p1145
tp1146
Rp1147
sVaphasia
p1148
g22
(g26
S'\x13\x00\x00\x00'
p1149
tp1150
Rp1151
sVfacial
p1152
g22
(g26
S'\x95\x00\x00\x00'
p1153
tp1154
Rp1155
sVhands
p1156
g22
(g26
S'\xba\x00\x00\x00'
p1157
tp1158
Rp1159
sVfoot
p1160
g22
(g26
S'\xa7\x00\x00\x00'
p1161
tp1162
Rp1163
sVhearing
p1164
g22
(g26
S'\xbd\x00\x00\x00'
p1165
tp1166
Rp1167
sVshingles
p1168
g22
(g26
S'\x87\x01\x00\x00'
p1169
tp1170
Rp1171
sVshoulder
p1172
g22
(g26
S'\x89\x01\x00\x00'
p1173
tp1174
Rp1175
sVacute
p1176
g22
(g26
S'\x04\x00\x00\x00'
p1177
tp1178
Rp1179
sVinversion
p1180
g22
(g26
S'\xe8\x00\x00\x00'
p1181
tp1182
Rp1183
sVfibromyalgia
p1184
g22
(g26
S'\x9d\x00\x00\x00'
p1185
tp1186
Rp1187
sVkawasaki
p1188
g22
(g26
S'\xf1\x00\x00\x00'
p1189
tp1190
Rp1191
sVstreaks
p1192
g22
(g26
S'\x9e\x01\x00\x00'
p1193
tp1194
Rp1195
sVrectal
p1196
g22
(g26
S'l\x01\x00\x00'
p1197
tp1198
Rp1199
sVhygiene
p1200
g22
(g26
S'\xcc\x00\x00\x00'
p1201
tp1202
Rp1203
sVgiardiasis
p1204
g22
(g26
S'\xb2\x00\x00\x00'
p1205
tp1206
Rp1207
sVdengue
p1208
g22
(g26
S'g\x00\x00\x00'
p1209
tp1210
Rp1211
sVnose
p1212
g22
(g26
S'4\x01\x00\x00'
p1213
tp1214
Rp1215
sVdrainage
p1216
g22
(g26
S'z\x00\x00\x00'
p1217
tp1218
Rp1219
sVoutput
p1220
g22
(g26
S'=\x01\x00\x00'
p1221
tp1222
Rp1223
sVshaking
p1224
g22
(g26
S'\x86\x01\x00\x00'
p1225
tp1226
Rp1227
sVheel
p1228
g22
(g26
S'\xc0\x00\x00\x00'
p1229
tp1230
Rp1231
sVpoor
p1232
g22
(g26
S'Z\x01\x00\x00'
p1233
tp1234
Rp1235
sVankles
p1236
g22
(g26
S'\x11\x00\x00\x00'
p1237
tp1238
Rp1239
sVmental
p1240
g22
(g26
S'\x10\x01\x00\x00'
p1241
tp1242
Rp1243
sVweight
p1244
g22
(g26
S'\xda\x01\x00\x00'
p1245
tp1246
Rp1247
sVpleurisy
p1248
g22
(g26
S'T\x01\x00\x00'
p1249
tp1250
Rp1251
sVabnormal
p1252
g22
(g26
S'\x01\x00\x00\x00'
p1253
tp1254
Rp1255
sVback
p1256
g22
(g26
S'\x1e\x00\x00\x00'
p1257
tp1258
Rp1259
sVinverted
p1260
g22
(g26
S'\xe9\x00\x00\x00'
p1261
tp1262
Rp1263
sVhair
p1264
g22
(g26
S'\xb6\x00\x00\x00'
p1265
tp1266
Rp1267
sVdeficiency
p1268
g22
(g26
S'b\x00\x00\x00'
p1269
tp1270
Rp1271
sVlips
p1272
g22
(g26
S'\xff\x00\x00\x00'
p1273
tp1274
Rp1275
sVmultiple
p1276
g22
(g26
S'\x1e\x01\x00\x00'
p1277
tp1278
Rp1279
sVev
p1280
g22
(g26
S'\x8f\x00\x00\x00'
p1281
tp1282
Rp1283
sVneglecting
p1284
g22
(g26
S'+\x01\x00\x00'
p1285
tp1286
Rp1287
sVdistended
p1288
g22
(g26
S't\x00\x00\x00'
p1289
tp1290
Rp1291
sVpopping
p1292
g22
(g26
S'[\x01\x00\x00'
p1293
tp1294
Rp1295
sVsemen
p1296
g22
(g26
S'\x83\x01\x00\x00'
p1297
tp1298
Rp1299
sVvertigo
p1300
g22
(g26
S'\xd2\x01\x00\x00'
p1301
tp1302
Rp1303
sVhcv
p1304
g22
(g26
S'\xbb\x00\x00\x00'
p1305
tp1306
Rp1307
sVmissed
p1308
g22
(g26
S'\x15\x01\x00\x00'
p1309
tp1310
Rp1311
sVintercourse
p1312
g22
(g26
S'\xe3\x00\x00\x00'
p1313
tp1314
Rp1315
sVthirst
p1316
g22
(g26
S'\xb0\x01\x00\x00'
p1317
tp1318
Rp1319
sVnon polio
p1320
g22
(g26
S'3\x01\x00\x00'
p1321
tp1322
Rp1323
sVconstipation
p1324
g22
(g26
S'S\x00\x00\x00'
p1325
tp1326
Rp1327
sVra
p1328
g22
(g26
S'j\x01\x00\x00'
p1329
tp1330
Rp1331
sVscalp
p1332
g22
(g26
S'{\x01\x00\x00'
p1333
tp1334
Rp1335
sVnipple
p1336
g22
(g26
S'/\x01\x00\x00'
p1337
tp1338
Rp1339
sVconfusion
p1340
g22
(g26
S'Q\x00\x00\x00'
p1341
tp1342
Rp1343
sVtesticular
p1344
g22
(g26
S'\xac\x01\x00\x00'
p1345
tp1346
Rp1347
sVred
p1348
g22
(g26
S'm\x01\x00\x00'
p1349
tp1350
Rp1351
sVtingling
p1352
g22
(g26
S'\xb4\x01\x00\x00'
p1353
tp1354
Rp1355
sVhallucinations
p1356
g22
(g26
S'\xb8\x00\x00\x00'
p1357
tp1358
Rp1359
sVturning
p1360
g22
(g26
S'\xc1\x01\x00\x00'
p1361
tp1362
Rp1363
sVitching
p1364
g22
(g26
S'\xec\x00\x00\x00'
p1365
tp1366
Rp1367
sVodor
p1368
g22
(g26
S'7\x01\x00\x00'
p1369
tp1370
Rp1371
sVunusual
p1372
g22
(g26
S'\xc7\x01\x00\x00'
p1373
tp1374
Rp1375
sVdifficulty
p1376
g22
(g26
S'n\x00\x00\x00'
p1377
tp1378
Rp1379
sVbumps
p1380
g22
(g26
S'4\x00\x00\x00'
p1381
tp1382
Rp1383
sValzheimer
p1384
g22
(g26
S'\n\x00\x00\x00'
p1385
tp1386
Rp1387
sVmenopause
p1388
g22
(g26
S'\x0e\x01\x00\x00'
p1389
tp1390
Rp1391
sVabdominal
p1392
g22
(g26
S'\x00\x00\x00\x00'
p1393
tp1394
Rp1395
sVroseola
p1396
g22
(g26
S'x\x01\x00\x00'
p1397
tp1398
Rp1399
sVcough
p1400
g22
(g26
S'W\x00\x00\x00'
p1401
tp1402
Rp1403
sVhepatitis
p1404
g22
(g26
S'\xc3\x00\x00\x00'
p1405
tp1406
Rp1407
sVdizziness
p1408
g22
(g26
S'x\x00\x00\x00'
p1409
tp1410
Rp1411
sVpus
p1412
g22
(g26
S'i\x01\x00\x00'
p1413
tp1414
Rp1415
sVpelvic
p1416
g22
(g26
S'I\x01\x00\x00'
p1417
tp1418
Rp1419
sVon
p1420
g22
(g26
S'8\x01\x00\x00'
p1421
tp1422
Rp1423
sVpancreatic
p1424
g22
(g26
S'D\x01\x00\x00'
p1425
tp1426
Rp1427
sVcreaking
p1428
g22
(g26
S'Z\x00\x00\x00'
p1429
tp1430
Rp1431
sVtestosterone
p1432
g22
(g26
S'\xad\x01\x00\x00'
p1433
tp1434
Rp1435
sVrheumatoid
p1436
g22
(g26
S'u\x01\x00\x00'
p1437
tp1438
Rp1439
sVparalysis
p1440
g22
(g26
S'F\x01\x00\x00'
p1441
tp1442
Rp1443
sVgums
p1444
g22
(g26
S'\xb5\x00\x00\x00'
p1445
tp1446
Rp1447
sVpremenstrual
p1448
g22
(g26
S'`\x01\x00\x00'
p1449
tp1450
Rp1451
sVflaky
p1452
g22
(g26
S'\xa2\x00\x00\x00'
p1453
tp1454
Rp1455
sVswine
p1456
g22
(g26
S'\xa4\x01\x00\x00'
p1457
tp1458
Rp1459
sVvaginal
p1460
g22
(g26
S'\xd0\x01\x00\x00'
p1461
tp1462
Rp1463
sVwrist
p1464
g22
(g26
S'\xe0\x01\x00\x00'
p1465
tp1466
Rp1467
sVtongue
p1468
g22
(g26
S'\xb9\x01\x00\x00'
p1469
tp1470
Rp1471
sVtwitch
p1472
g22
(g26
S'\xc2\x01\x00\x00'
p1473
tp1474
Rp1475
sVneglect
p1476
g22
(g26
S'*\x01\x00\x00'
p1477
tp1478
Rp1479
sVfrequent
p1480
g22
(g26
S'\xa8\x00\x00\x00'
p1481
tp1482
Rp1483
sVearache
p1484
g22
(g26
S'\x83\x00\x00\x00'
p1485
tp1486
Rp1487
sVdrooling
p1488
g22
(g26
S'|\x00\x00\x00'
p1489
tp1490
Rp1491
sVhypothermia
p1492
g22
(g26
S'\xd4\x00\x00\x00'
p1493
tp1494
Rp1495
sVburning
p1496
g22
(g26
S'5\x00\x00\x00'
p1497
tp1498
Rp1499
sVgout
p1500
g22
(g26
S'\xb3\x00\x00\x00'
p1501
tp1502
Rp1503
sVcarpal
p1504
g22
(g26
S':\x00\x00\x00'
p1505
tp1506
Rp1507
sVbuttock
p1508
g22
(g26
S'7\x00\x00\x00'
p1509
tp1510
Rp1511
sVfeet
p1512
g22
(g26
S'\x9a\x00\x00\x00'
p1513
tp1514
Rp1515
sVchronic
p1516
g22
(g26
S'F\x00\x00\x00'
p1517
tp1518
Rp1519
sVenlarged
p1520
g22
(g26
S'\x8c\x00\x00\x00'
p1521
tp1522
Rp1523
sVlung
p1524
g22
(g26
S'\x04\x01\x00\x00'
p1525
tp1526
Rp1527
sVproteinuria
p1528
g22
(g26
S'd\x01\x00\x00'
p1529
tp1530
Rp1531
sVdischarge
p1532
g22
(g26
S'q\x00\x00\x00'
p1533
tp1534
Rp1535
sVmyalgia
p1536
g22
(g26
S'"\x01\x00\x00'
p1537
tp1538
Rp1539
sVtachycardia
p1540
g22
(g26
S'\xa8\x01\x00\x00'
p1541
tp1542
Rp1543
sVangular
p1544
g22
(g26
S'\x0f\x00\x00\x00'
p1545
tp1546
Rp1547
sVhiatal
p1548
g22
(g26
S'\xc6\x00\x00\x00'
p1549
tp1550
Rp1551
sVseizures
p1552
g22
(g26
S'\x80\x01\x00\x00'
p1553
tp1554
Rp1555
sVherpes
p1556
g22
(g26
S'\xc5\x00\x00\x00'
p1557
tp1558
Rp1559
sVtemperature
p1560
g22
(g26
S'\xaa\x01\x00\x00'
p1561
tp1562
Rp1563
sVnails
p1564
g22
(g26
S'&\x01\x00\x00'
p1565
tp1566
Rp1567
sVprostate
p1568
g22
(g26
S'b\x01\x00\x00'
p1569
tp1570
Rp1571
sVsneezing
p1572
g22
(g26
S'\x8e\x01\x00\x00'
p1573
tp1574
Rp1575
sVspots
p1576
g22
(g26
S'\x95\x01\x00\x00'
p1577
tp1578
Rp1579
sVeuphoria
p1580
g22
(g26
S'\x8e\x00\x00\x00'
p1581
tp1582
Rp1583
sVmastitis
p1584
g22
(g26
S'\t\x01\x00\x00'
p1585
tp1586
Rp1587
sVattack
p1588
g22
(g26
S'\x1a\x00\x00\x00'
p1589
tp1590
Rp1591
sVfibrillation
p1592
g22
(g26
S'\x9c\x00\x00\x00'
p1593
tp1594
Rp1595
sVlow
p1596
g22
(g26
S'\x01\x01\x00\x00'
p1597
tp1598
Rp1599
sVankle
p1600
g22
(g26
S'\x10\x00\x00\x00'
p1601
tp1602
Rp1603
sVwhite
p1604
g22
(g26
S'\xdd\x01\x00\x00'
p1605
tp1606
Rp1607
sVdiabetes
p1608
g22
(g26
S'l\x00\x00\x00'
p1609
tp1610
Rp1611
sVheartburn
p1612
g22
(g26
S'\xbf\x00\x00\x00'
p1613
tp1614
Rp1615
sVpainful
p1616
g22
(g26
S'A\x01\x00\x00'
p1617
tp1618
Rp1619
sVheadache
p1620
g22
(g26
S'\xbc\x00\x00\x00'
p1621
tp1622
Rp1623
sVdilated
p1624
g22
(g26
S'o\x00\x00\x00'
p1625
tp1626
Rp1627
sVdisorder
p1628
g22
(g26
S's\x00\x00\x00'
p1629
tp1630
Rp1631
sVeyes
p1632
g22
(g26
S'\x94\x00\x00\x00'
p1633
tp1634
Rp1635
sVstomach
p1636
g22
(g26
S'\x9a\x01\x00\x00'
p1637
tp1638
Rp1639
sVcopd
p1640
g22
(g26
S'V\x00\x00\x00'
p1641
tp1642
Rp1643
sVsores
p1644
g22
(g26
S'\x91\x01\x00\x00'
p1645
tp1646
Rp1647
sVbowel
p1648
g22
(g26
S'-\x00\x00\x00'
p1649
tp1650
Rp1651
sVbursitis
p1652
g22
(g26
S'6\x00\x00\x00'
p1653
tp1654
Rp1655
sVgait
p1656
g22
(g26
S'\xab\x00\x00\x00'
p1657
tp1658
Rp1659
sVfailure
p1660
g22
(g26
S'\x96\x00\x00\x00'
p1661
tp1662
Rp1663
sVcheilitis
p1664
g22
(g26
S'B\x00\x00\x00'
p1665
tp1666
Rp1667
sVgain
p1668
g22
(g26
S'\xaa\x00\x00\x00'
p1669
tp1670
Rp1671
sVgastroenteritis
p1672
g22
(g26
S'\xaf\x00\x00\x00'
p1673
tp1674
Rp1675
sVlymph
p1676
g22
(g26
S'\x07\x01\x00\x00'
p1677
tp1678
Rp1679
sVear
p1680
g22
(g26
S'\x82\x00\x00\x00'
p1681
tp1682
Rp1683
sVretraction
p1684
g22
(g26
S't\x01\x00\x00'
p1685
tp1686
Rp1687
sVcolitis
p1688
g22
(g26
S'M\x00\x00\x00'
p1689
tp1690
Rp1691
sVanxiety
p1692
g22
(g26
S'\x12\x00\x00\x00'
p1693
tp1694
Rp1695
sVinfertility
p1696
g22
(g26
S'\xe0\x00\x00\x00'
p1697
tp1698
Rp1699
sVpitting
p1700
g22
(g26
S'R\x01\x00\x00'
p1701
tp1702
Rp1703
sVdouble
p1704
g22
(g26
S'y\x00\x00\x00'
p1705
tp1706
Rp1707
sVuti
p1708
g22
(g26
S'\xcf\x01\x00\x00'
p1709
tp1710
Rp1711
sVinfectious
p1712
g22
(g26
S'\xdf\x00\x00\x00'
p1713
tp1714
Rp1715
sVvocal
p1716
g22
(g26
S'\xd5\x01\x00\x00'
p1717
tp1718
Rp1719
sVpneumonia
p1720
g22
(g26
S'V\x01\x00\x00'
p1721
tp1722
Rp1723
sVaneurysm
p1724
g22
(g26
S'\x0e\x00\x00\x00'
p1725
tp1726
Rp1727
sVhand
p1728
g22
(g26
S'\xb9\x00\x00\x00'
p1729
tp1730
Rp1731
sVpoisoning
p1732
g22
(g26
S'W\x01\x00\x00'
p1733
tp1734
Rp1735
sVchapped
p1736
g22
(g26
S'A\x00\x00\x00'
p1737
tp1738
Rp1739
sVtoe
p1740
g22
(g26
S'\xb7\x01\x00\x00'
p1741
tp1742
Rp1743
sVpsoriasis
p1744
g22
(g26
S'e\x01\x00\x00'
p1745
tp1746
Rp1747
sVbehavior
p1748
g22
(g26
S' \x00\x00\x00'
p1749
tp1750
Rp1751
sVbronchitis
p1752
g22
(g26
S'2\x00\x00\x00'
p1753
tp1754
Rp1755
sVtaste
p1756
g22
(g26
S'\xa9\x01\x00\x00'
p1757
tp1758
Rp1759
sVsclerosis
p1760
g22
(g26
S'~\x01\x00\x00'
p1761
tp1762
Rp1763
sVmyeloma
p1764
g22
(g26
S'$\x01\x00\x00'
p1765
tp1766
Rp1767
sVscarlet
p1768
g22
(g26
S'|\x01\x00\x00'
p1769
tp1770
Rp1771
sVanaphylaxis
p1772
g22
(g26
S'\x0c\x00\x00\x00'
p1773
tp1774
Rp1775
sVadhd
p1776
g22
(g26
S'\x05\x00\x00\x00'
p1777
tp1778
Rp1779
sVthroat
p1780
g22
(g26
S'\xb1\x01\x00\x00'
p1781
tp1782
Rp1783
sVintestine
p1784
g22
(g26
S'\xe5\x00\x00\x00'
p1785
tp1786
Rp1787
sVswelling
p1788
g22
(g26
S'\xa3\x01\x00\x00'
p1789
tp1790
Rp1791
sVregulate
p1792
g22
(g26
S'p\x01\x00\x00'
p1793
tp1794
Rp1795
sVdryness
p1796
g22
(g26
S'~\x00\x00\x00'
p1797
tp1798
Rp1799
sVkidney
p1800
g22
(g26
S'\xf2\x00\x00\x00'
p1801
tp1802
Rp1803
sVmeningitis
p1804
g22
(g26
S'\r\x01\x00\x00'
p1805
tp1806
Rp1807
sVbruising
p1808
g22
(g26
S'3\x00\x00\x00'
p1809
tp1810
Rp1811
sVpupils
p1812
g22
(g26
S'h\x01\x00\x00'
p1813
tp1814
Rp1815
sVkoilonychia
p1816
g22
(g26
S'\xf4\x00\x00\x00'
p1817
tp1818
Rp1819
sVlumps
p1820
g22
(g26
S'\x03\x01\x00\x00'
p1821
tp1822
Rp1823
sVpale
p1824
g22
(g26
S'B\x01\x00\x00'
p1825
tp1826
Rp1827
sVself
p1828
g22
(g26
S'\x81\x01\x00\x00'
p1829
tp1830
Rp1831
sVdiarrhea
p1832
g22
(g26
S'm\x00\x00\x00'
p1833
tp1834
Rp1835
sVmetallic
p1836
g22
(g26
S'\x11\x01\x00\x00'
p1837
tp1838
Rp1839
sVhoarseness
p1840
g22
(g26
S'\xca\x00\x00\x00'
p1841
tp1842
Rp1843
sVchest
p1844
g22
(g26
S'C\x00\x00\x00'
p1845
tp1846
Rp1847
sVhyperventilation
p1848
g22
(g26
S'\xd0\x00\x00\x00'
p1849
tp1850
Rp1851
sVlip
p1852
g22
(g26
S'\xfe\x00\x00\x00'
p1853
tp1854
Rp1855
sVgeneralized
p1856
g22
(g26
00\x00\x00'
p1857
tp1858
Rp1859
sVchest
p1860
g22
(g26
S'D\x00\x00\x00'
p1861
tp1862
Rp1863
sVhyperventilation
p1864
g22
(g26
S'\xd2\x00\x00\x00'
p1865
tp1866
Rp1867
sVlip
p1868
g22
(g26
S'\x00\x01\x00\x00'
p1869
tp1870
Rp1871
sVgeneralized
p1872
g22
(g26
S'\xb2\x00\x00\x00'
p1873
tp1874
Rp1875
sVtic
p1876
g22
(g26
S'\xb5\x01\x00\x00'
p1877
tp1878
Rp1879
sVpoor
p1880
g22
(g26
S']\x01\x00\x00'
p1881
tp1882
Rp1883
sVurge
p1884
g22
(g26
S'\xcc\x01\x00\x00'
p1885
tp1886
Rp1887
sVpain
p1888
g22
(g26
S'C\x01\x00\x00'
p1889
tp1890
Rp1891
sVoneself
p1892
g22
(g26
S'<\x01\x00\x00'
p1893
tp1894
Rp1895
sVincontinence
p1896
g22
(g26
S'\xde\x00\x00\x00'
p1897
tp1898
Rp1899
sVsternutation
p1900
g22
(g26
S'\x9a\x01\x00\x00'
p1901
tp1902
Rp1903
sVnasal
p1904
g22
(g26
S')\x01\x00\x00'
p1905
tp1906
Rp1907
sVvirus
p1908
g22
(g26
S'\xd6\x01\x00\x00'
p1909
tp1910
Rp1911
sVcyanosis
p1912
g22
(g26
S'\\\x00\x00\x00'
p1913
tp1914
Rp1915
sVmouth
p1916
g22
(g26
S'\x1d\x01\x00\x00'
p1917
tp1918
Rp1919
sVcracking
p1920
g22
(g26
S'Y\x00\x00\x00'
p1921
tp1922
Rp1923
sVtract
p1924
g22
(g26
S'\xbf\x01\x00\x00'
p1925
tp1926
Rp1927
sVoab
p1928
g22
(g26
S'8\x01\x00\x00'
p1929
tp1930
Rp1931
sVknee
p1932
g22
(g26
S'\xf5\x00\x00\x00'
p1933
tp1934
Rp1935
sVmood
p1936
g22
(g26
S'\x1b\x01\x00\x00'
p1937
tp1938
Rp1939
sVpeptic
p1940
g22
(g26
S'O\x01\x00\x00'
p1941
tp1942
Rp1943
sVhyperthyroidism
p1944
g22
(g26
S'\xd1\x00\x00\x00'
p1945
tp1946
Rp1947
sVlactose
p1948
g22
(g26
S'\xfa\x00\x00\x00'
p1949
tp1950
Rp1951
sVdisease
p1952
g22
(g26
S't\x00\x00\x00'
p1953
tp1954
Rp1955
sVcyanosis turning
p1956
g22
(g26
S']\x00\x00\x00'
p1957
tp1958
Rp1959
sVmass
p1960
g22
(g26
S'\n\x01\x00\x00'
p1961
tp1962
Rp1963
sVtesticles
p1964
g22
(g26
S'\xae\x01\x00\x00'
p1965
tp1966
Rp1967
sVurgency
p1968
g22
(g26
S'\xcd\x01\x00\x00'
p1969
tp1970
Rp1971
ssS'binary'
p1972
I00
sS'ngram_range'
p1973
(I1
I2
tp1974
sS'preprocessor'
p1975
NsS'min_df'
p1976
I1
sS'max_features'
p1977
NsS'input'
p1978
Vcontent
p1979
sS'dtype'
p1980
cnumpy
int64
p1981
sS'stop_words_'
p1982
c__builtin__
set
p1983
((lp1984
tp1985
Rp1986
sS'strip_accents'
p1987
Nsb.